; Function Attrs: inlinehint mustprogress uwtable
define internal fastcc noundef zeroext i1 @"_ZZN15cmDocumentation12CheckOptionsEiPKPKcS1_ENK3$_0clEiRNSt7__cxx1112basic_stringIcSt11char_traitsIcESaIcEEE"(i32 %.0.val, ptr readonly captures(none) %.8.val, i32 noundef range(i32 -2147483646, -2147483648) %0, ptr noundef nonnull align 8 dereferenceable(32) %1) unnamed_addr #10 align 2 {
  %3 = icmp slt i32 %0, %.0.val
  br i1 %3, label %4, label %_ZN12_GLOBAL__N_18isOptionEPKc.exit.thread3

4:                                                ; preds = %2
  %5 = sext i32 %0 to i64
  %6 = getelementptr inbounds ptr, ptr %.8.val, i64 %5
  %7 = load ptr, ptr %6, align 8, !tbaa !72
  %8 = load i8, ptr %7, align 1, !tbaa !14
  switch i8 %8, label %_ZN12_GLOBAL__N_18isOptionEPKc.exit.thread [
    i8 45, label %_ZN12_GLOBAL__N_18isOptionEPKc.exit.thread3
    i8 47, label %sub_1.i
  ]

sub_1.i:                                          ; preds = %4
  %9 = getelementptr inbounds nuw i8, ptr %7, i64 1
  %10 = load i8, ptr %9, align 1
  switch i8 %10, label %_ZN12_GLOBAL__N_18isOptionEPKc.exit.thread [
    i8 86, label %.tail.i
    i8 63, label %_ZN12_GLOBAL__N_18isOptionEPKc.exit
  ]

.tail.i:                                          ; preds = %sub_1.i
  %11 = getelementptr inbounds nuw i8, ptr %7, i64 2
  %12 = load i8, ptr %11, align 1
  %13 = icmp eq i8 %12, 0
  br i1 %13, label %_ZN12_GLOBAL__N_18isOptionEPKc.exit.thread3, label %_ZN12_GLOBAL__N_18isOptionEPKc.exit.thread

_ZN12_GLOBAL__N_18isOptionEPKc.exit:              ; preds = %sub_1.i
  %14 = getelementptr inbounds nuw i8, ptr %7, i64 2
  %15 = load i8, ptr %14, align 1
  %16 = icmp eq i8 %15, 0
  br i1 %16, label %_ZN12_GLOBAL__N_18isOptionEPKc.exit.thread3, label %_ZN12_GLOBAL__N_18isOptionEPKc.exit.thread

_ZN12_GLOBAL__N_18isOptionEPKc.exit.thread:       ; preds = %sub_1.i, %4, %.tail.i, %_ZN12_GLOBAL__N_18isOptionEPKc.exit
  %17 = getelementptr inbounds nuw i8, ptr %1, i64 8
  %18 = load i64, ptr %17, align 8, !tbaa !15
  %19 = tail call noundef i64 @strlen(ptr noundef nonnull dereferenceable(1) %7) #25
  %20 = tail call noundef nonnull align 8 dereferenceable(32) ptr @_ZNSt7__cxx1112basic_stringIcSt11char_traitsIcESaIcEE10_M_replaceEmmPKcm(ptr noundef nonnull align 8 dereferenceable(32) %1, i64 noundef 0, i64 noundef %18, ptr noundef nonnull %7, i64 noundef %19)
  br label %_ZN12_GLOBAL__N_18isOptionEPKc.exit.thread3

_ZN12_GLOBAL__N_18isOptionEPKc.exit.thread3:      ; preds = %4, %.tail.i, %2, %_ZN12_GLOBAL__N_18isOptionEPKc.exit, %_ZN12_GLOBAL__N_18isOptionEPKc.exit.thread
  %.0 = phi i1 [ true, %_ZN12_GLOBAL__N_18isOptionEPKc.exit.thread ], [ false, %_ZN12_GLOBAL__N_18isOptionEPKc.exit ], [ false, %2 ], [ false, %.tail.i ], [ false, %4 ]
  ret i1 %.0
}